; ModuleID = '12/1135.c'
source_filename = "12/1135.c"
target datalayout = "e-m:e-p270:32:32-p271:32:32-p272:64:64-i64:64-f80:128-n8:16:32:64-S128"
target triple = "x86_64-pc-linux-gnu"

@.str = private unnamed_addr constant [3 x i8] c"%d\00", align 1
@.str.1 = private unnamed_addr constant [4 x i8] c"%d\0A\00", align 1

; Function Attrs: noinline nounwind uwtable
define dso_local i32 @main() #0 {
  %1 = alloca i32, align 4
  %2 = alloca [17 x i32], align 16
  %3 = alloca i32, align 4
  %4 = alloca i32, align 4
  %5 = alloca i32, align 4
  %6 = alloca i32, align 4
  %7 = alloca i32, align 4
  %8 = alloca i32, align 4
  store i32 0, i32* %1, align 4
  store i32 0, i32* %3, align 4
  store i32 0, i32* %7, align 4
  store i32 0, i32* %4, align 4
  br label %9

9:                                                ; preds = %16, %0
  %10 = load i32, i32* %4, align 4
  %11 = icmp sle i32 %10, 16
  br i1 %11, label %12, label %19

12:                                               ; preds = %9
  %13 = load i32, i32* %4, align 4
  %14 = sext i32 %13 to i64
  %15 = getelementptr inbounds [17 x i32], [17 x i32]* %2, i64 0, i64 %14
  store i32 0, i32* %15, align 4
  br label %16

16:                                               ; preds = %12
  %17 = load i32, i32* %4, align 4
  %18 = add nsw i32 %17, 1
  store i32 %18, i32* %4, align 4
  br label %9

19:                                               ; preds = %9
  store i32 0, i32* %8, align 4
  br label %20

20:                                               ; preds = %94, %19
  store i32 0, i32* %4, align 4
  br label %21

21:                                               ; preds = %38, %20
  %22 = load i32, i32* %4, align 4
  %23 = icmp slt i32 %22, 16
  br i1 %23, label %24, label %41

24:                                               ; preds = %21
  %25 = load i32, i32* %4, align 4
  %26 = sext i32 %25 to i64
  %27 = getelementptr inbounds [17 x i32], [17 x i32]* %2, i64 0, i64 %26
  %28 = call i32 (i8*, ...) @__isoc99_scanf(i8* getelementptr inbounds ([3 x i8], [3 x i8]* @.str, i64 0, i64 0), i32* %27)
  %29 = load i32, i32* %3, align 4
  %30 = add nsw i32 %29, 1
  store i32 %30, i32* %3, align 4
  %31 = load i32, i32* %4, align 4
  %32 = sext i32 %31 to i64
  %33 = getelementptr inbounds [17 x i32], [17 x i32]* %2, i64 0, i64 %32
  %34 = load i32, i32* %33, align 4
  %35 = icmp eq i32 %34, 0
  br i1 %35, label %36, label %37

36:                                               ; preds = %24
  br label %41

37:                                               ; preds = %24
  br label %38

38:                                               ; preds = %37
  %39 = load i32, i32* %4, align 4
  %40 = add nsw i32 %39, 1
  store i32 %40, i32* %4, align 4
  br label %21

41:                                               ; preds = %36, %21
  %42 = getelementptr inbounds [17 x i32], [17 x i32]* %2, i64 0, i64 0
  %43 = load i32, i32* %42, align 16
  %44 = icmp eq i32 %43, -1
  br i1 %44, label %45, label %46

45:                                               ; preds = %41
  br label %97

46:                                               ; preds = %41
  store i32 0, i32* %5, align 4
  br label %47

47:                                               ; preds = %88, %46
  %48 = load i32, i32* %5, align 4
  %49 = load i32, i32* %3, align 4
  %50 = icmp slt i32 %48, %49
  br i1 %50, label %51, label %91

51:                                               ; preds = %47
  %52 = load i32, i32* %5, align 4
  %53 = add nsw i32 %52, 1
  store i32 %53, i32* %6, align 4
  br label %54

54:                                               ; preds = %84, %51
  %55 = load i32, i32* %6, align 4
  %56 = load i32, i32* %3, align 4
  %57 = icmp slt i32 %55, %56
  br i1 %57, label %58, label %87

58:                                               ; preds = %54
  %59 = load i32, i32* %5, align 4
  %60 = sext i32 %59 to i64
  %61 = getelementptr inbounds [17 x i32], [17 x i32]* %2, i64 0, i64 %60
  %62 = load i32, i32* %61, align 4
  %63 = load i32, i32* %6, align 4
  %64 = sext i32 %63 to i64
  %65 = getelementptr inbounds [17 x i32], [17 x i32]* %2, i64 0, i64 %64
  %66 = load i32, i32* %65, align 4
  %67 = mul nsw i32 2, %66
  %68 = icmp eq i32 %62, %67
  br i1 %68, label %80, label %69

69:                                               ; preds = %58
  %70 = load i32, i32* %6, align 4
  %71 = sext i32 %70 to i64
  %72 = getelementptr inbounds [17 x i32], [17 x i32]* %2, i64 0, i64 %71
  %73 = load i32, i32* %72, align 4
  %74 = load i32, i32* %5, align 4
  %75 = sext i32 %74 to i64
  %76 = getelementptr inbounds [17 x i32], [17 x i32]* %2, i64 0, i64 %75
  %77 = load i32, i32* %76, align 4
  %78 = mul nsw i32 2, %77
  %79 = icmp eq i32 %73, %78
  br i1 %79, label %80, label %83

80:                                               ; preds = %69, %58
  %81 = load i32, i32* %7, align 4
  %82 = add nsw i32 %81, 1
  store i32 %82, i32* %7, align 4
  br label %83

83:                                               ; preds = %80, %69
  br label %84

84:                                               ; preds = %83
  %85 = load i32, i32* %6, align 4
  %86 = add nsw i32 %85, 1
  store i32 %86, i32* %6, align 4
  br label %54

87:                                               ; preds = %54
  br label %88

88:                                               ; preds = %87
  %89 = load i32, i32* %5, align 4
  %90 = add nsw i32 %89, 1
  store i32 %90, i32* %5, align 4
  br label %47

91:                                               ; preds = %47
  %92 = load i32, i32* %7, align 4
  %93 = call i32 (i8*, ...) @printf(i8* getelementptr inbounds ([4 x i8], [4 x i8]* @.str.1, i64 0, i64 0), i32 %92)
  store i32 0, i32* %7, align 4
  store i32 0, i32* %3, align 4
  br label %94

94:                                               ; preds = %91
  %95 = load i32, i32* %8, align 4
  %96 = add nsw i32 %95, 1
  store i32 %96, i32* %8, align 4
  br label %20

97:                                               ; preds = %45
  %98 = load i32, i32* %1, align 4
  ret i32 %98
}

declare dso_local i32 @__isoc99_scanf(i8*, ...) #1

declare dso_local i32 @printf(i8*, ...) #1


!llvm.module.flags = !{!0}
!llvm.ident = !{!1}

!0 = !{i32 1, !"wchar_size", i32 4}
!1 = !{!"clang version 10.0.0-4ubuntu1 "}
